target datalayout = "e-m:e-p270:32:32-p271:32:32-p272:64:64-i64:64-i128:128-f80:128-n8:16:32:64-S128"
target triple = "x86_64-pc-linux-gnu"

%struct.pmix_object_t = type { %union.pthread_mutex_t, ptr, i32, %struct.pmix_tma }
%struct.pmix_tma = type { ptr, ptr, ptr, ptr, ptr, ptr, ptr, ptr }
%union.pthread_mutex_t = type { %struct.__pthread_mutex_s }
%struct.__pthread_mutex_s = type { i32, i32, i32, i32, i32, i16, i16, %struct.__pthread_internal_list }
%struct.__pthread_internal_list = type { ptr, ptr }
%struct.pmix_pointer_array_t = type { %struct.pmix_object_t, i32, i32, i32, i32, i32, ptr, ptr }
%struct.pmix_list_t = type { %struct.pmix_object_t, %struct.pmix_list_item_t, i64 }
%struct.pmix_list_item_t = type { %struct.pmix_object_t, ptr, ptr, i32 }
%struct.pmix_proc = type { [256 x i8], i32 }
%struct.pmix_iof_flags_t = type { i8, i8, i8, i8, i8, i8, i8, ptr, ptr, i8, i8, i8, i8, i8, i8 }
%struct.pmix_server_globals_t = type { %struct.pmix_list_t, %struct.pmix_pointer_array_t, %struct.pmix_list_t, %struct.pmix_list_t, %struct.pmix_list_t, %struct.pmix_list_t, ptr, %struct.pmix_list_t, ptr, %struct.pmix_list_t, %struct.pmix_list_t, %struct.pmix_list_t, i64, i8, ptr, ptr, i8, i32, i32, i32, i32, i32, i32, i32, i32, i32, i32, i32, i32, i32, i32, i32, i32, i32, i32 }
%struct.pmix_byte_object = type { ptr, i64 }
%struct.pmix_iof_residual_t = type { %struct.pmix_list_item_t, %struct.pmix_proc, ptr, %struct.pmix_iof_flags_t, i16, i8, i8, %struct.pmix_byte_object }

@.str.1 = private unnamed_addr constant [37 x i8] c"PMIX ERROR: %s in file %s at line %d\00", align 1
@.str.2 = private unnamed_addr constant [18 x i8] c"common/pmix_iof.c\00", align 1
@pmix_server_globals = external global %struct.pmix_server_globals_t, align 8

; Function Attrs: nounwind uwtable
define void @pmix_iof_flush_residuals() #0 {
  %1 = alloca i32, align 4
  %2 = alloca ptr, align 8
  %3 = alloca i32, align 4
  call void @llvm.lifetime.start.p0(i64 4, ptr %1) #13
  call void @llvm.lifetime.start.p0(i64 8, ptr %2) #13
  %4 = load ptr, ptr getelementptr inbounds nuw (%struct.pmix_list_item_t, ptr getelementptr inbounds nuw (%struct.pmix_list_t, ptr getelementptr inbounds nuw (%struct.pmix_server_globals_t, ptr @pmix_server_globals, i32 0, i32 10), i32 0, i32 1), i32 0, i32 1), align 8, !tbaa !239
  store ptr %4, ptr %2, align 8, !tbaa !14
  br label %5

5:                                                ; preds = %43, %0
  %6 = load ptr, ptr %2, align 8, !tbaa !14
  %7 = icmp ne ptr %6, getelementptr inbounds nuw (%struct.pmix_list_t, ptr getelementptr inbounds nuw (%struct.pmix_server_globals_t, ptr @pmix_server_globals, i32 0, i32 10), i32 0, i32 1)
  br i1 %7, label %8, label %47

8:                                                ; preds = %5
  %9 = load ptr, ptr %2, align 8, !tbaa !14
  %10 = getelementptr inbounds nuw %struct.pmix_iof_residual_t, ptr %9, i32 0, i32 1
  %11 = load ptr, ptr %2, align 8, !tbaa !14
  %12 = getelementptr inbounds nuw %struct.pmix_iof_residual_t, ptr %11, i32 0, i32 2
  %13 = load ptr, ptr %12, align 8, !tbaa !246
  %14 = load ptr, ptr %2, align 8, !tbaa !14
  %15 = getelementptr inbounds nuw %struct.pmix_iof_residual_t, ptr %14, i32 0, i32 3
  %16 = load ptr, ptr %2, align 8, !tbaa !14
  %17 = getelementptr inbounds nuw %struct.pmix_iof_residual_t, ptr %16, i32 0, i32 4
  %18 = load i16, ptr %17, align 8, !tbaa !240
  %19 = load ptr, ptr %2, align 8, !tbaa !14
  %20 = getelementptr inbounds nuw %struct.pmix_iof_residual_t, ptr %19, i32 0, i32 5
  %21 = load i8, ptr %20, align 2, !tbaa !247, !range !24, !noundef !25
  %22 = trunc i8 %21 to i1
  %23 = load ptr, ptr %2, align 8, !tbaa !14
  %24 = getelementptr inbounds nuw %struct.pmix_iof_residual_t, ptr %23, i32 0, i32 6
  %25 = load i8, ptr %24, align 1, !tbaa !248, !range !24, !noundef !25
  %26 = trunc i8 %25 to i1
  %27 = load ptr, ptr %2, align 8, !tbaa !14
  %28 = getelementptr inbounds nuw %struct.pmix_iof_residual_t, ptr %27, i32 0, i32 7
  %29 = call i32 @write_output_line(ptr noundef %10, ptr noundef %13, ptr noundef %15, i16 noundef zeroext %18, i1 noundef zeroext %22, i1 noundef zeroext %26, ptr noundef %28)
  store i32 %29, ptr %1, align 4, !tbaa !81
  %30 = load i32, ptr %1, align 4, !tbaa !81
  %31 = icmp ne i32 0, %30
  br i1 %31, label %32, label %42

32:                                               ; preds = %8
  br label %33

33:                                               ; preds = %32
  %34 = load i32, ptr %1, align 4, !tbaa !81
  %35 = icmp ne i32 -2, %34
  br i1 %35, label %36, label %39

36:                                               ; preds = %33
  %37 = load i32, ptr %1, align 4, !tbaa !81
  %38 = call ptr @PMIx_Error_string(i32 noundef %37)
  call void (i32, ptr, ...) @pmix_output(i32 noundef 0, ptr noundef @.str.1, ptr noundef %38, ptr noundef @.str.2, i32 noundef 1693)
  br label %39

39:                                               ; preds = %36, %33
  br label %40

40:                                               ; preds = %39
  br label %41

41:                                               ; preds = %40
  store i32 1, ptr %3, align 4
  br label %48

42:                                               ; preds = %8
  br label %43

43:                                               ; preds = %42
  %44 = load ptr, ptr %2, align 8, !tbaa !14
  %45 = getelementptr inbounds nuw %struct.pmix_list_item_t, ptr %44, i32 0, i32 1
  %46 = load ptr, ptr %45, align 8, !tbaa !128
  store ptr %46, ptr %2, align 8, !tbaa !14
  br label %5, !llvm.loop !297

47:                                               ; preds = %5
  store i32 0, ptr %3, align 4
  br label %48

48:                                               ; preds = %47, %41
  call void @llvm.lifetime.end.p0(i64 8, ptr %2) #13
  call void @llvm.lifetime.end.p0(i64 4, ptr %1) #13
  %49 = load i32, ptr %3, align 4
  switch i32 %49, label %51 [
    i32 0, label %50
    i32 1, label %50
  ]

50:                                               ; preds = %48, %48
  ret void

51:                                               ; preds = %48
  unreachable
}