; Function Attrs: nounwind uwtable
define void @pmix_iof_flush_residuals() local_unnamed_addr #0 {
  %.014 = load ptr, ptr getelementptr inbounds nuw (i8, ptr @pmix_server_globals, i64 2320), align 8, !tbaa !115
  %.not15 = icmp eq ptr %.014, getelementptr inbounds nuw (i8, ptr @pmix_server_globals, i64 2200)
  br i1 %.not15, label %.loopexit, label %.lr.ph

.lr.ph:                                           ; preds = %0, %17
  %.016 = phi ptr [ %.0, %17 ], [ %.014, %0 ]
  %1 = getelementptr inbounds nuw i8, ptr %.016, i64 144
  %2 = getelementptr inbounds nuw i8, ptr %.016, i64 408
  %3 = load ptr, ptr %2, align 8, !tbaa !220
  %4 = getelementptr inbounds nuw i8, ptr %.016, i64 416
  %5 = getelementptr inbounds nuw i8, ptr %.016, i64 448
  %6 = load i16, ptr %5, align 8, !tbaa !212
  %7 = getelementptr inbounds nuw i8, ptr %.016, i64 450
  %8 = load i8, ptr %7, align 2, !tbaa !221, !range !19, !noundef !20
  %9 = trunc nuw i8 %8 to i1
  %10 = getelementptr inbounds nuw i8, ptr %.016, i64 451
  %11 = load i8, ptr %10, align 1, !tbaa !222, !range !19, !noundef !20
  %12 = trunc nuw i8 %11 to i1
  %13 = getelementptr inbounds nuw i8, ptr %.016, i64 456
  %14 = tail call fastcc i32 @write_output_line(ptr noundef nonnull %1, ptr noundef %3, ptr noundef nonnull %4, i16 noundef zeroext %6, i1 noundef zeroext %9, i1 noundef zeroext %12, ptr noundef nonnull %13)
  switch i32 %14, label %15 [
    i32 0, label %17
    i32 -2, label %.loopexit
  ]

15:                                               ; preds = %.lr.ph
  %16 = tail call ptr @PMIx_Error_string(i32 noundef %14) #18
  tail call void (i32, ptr, ...) @pmix_output(i32 noundef 0, ptr noundef nonnull @.str.1, ptr noundef %16, ptr noundef nonnull @.str.2, i32 noundef 1693) #18
  br label %.loopexit

17:                                               ; preds = %.lr.ph
  %18 = getelementptr inbounds nuw i8, ptr %.016, i64 120
  %.0 = load ptr, ptr %18, align 8, !tbaa !115
  %.not = icmp eq ptr %.0, getelementptr inbounds nuw (i8, ptr @pmix_server_globals, i64 2200)
  br i1 %.not, label %.loopexit, label %.lr.ph, !llvm.loop !268

.loopexit:                                        ; preds = %.lr.ph, %17, %0, %15
  ret void
}